target datalayout = "e-m:e-p270:32:32-p271:32:32-p272:64:64-i64:64-i128:128-f80:128-n8:16:32:64-S128"
target triple = "x86_64-pc-linux-gnu"

%"class.tbb::detail::d1::spin_rw_mutex" = type { %"struct.std::atomic" }
%"struct.std::atomic" = type { %"struct.std::__atomic_base" }
%"struct.std::__atomic_base" = type { i64 }
%"class.tbb::detail::d1::rtm_rw_mutex::scoped_lock" = type <{ ptr, i32, [4 x i8] }>
%"class.tbb::detail::d1::rtm_rw_mutex" = type <{ %"class.tbb::detail::d1::spin_rw_mutex", [56 x i8], %"struct.std::atomic.0", [63 x i8] }>
%"struct.std::atomic.0" = type { %"struct.std::__atomic_base.1" }
%"struct.std::__atomic_base.1" = type { i8 }

; Function Attrs: mustprogress nounwind sspstrong uwtable
define linkonce_odr noundef i32 @_ZStanSt12memory_orderSt23__memory_order_modifier(i32 noundef %0, i32 noundef %1) #1 comdat {
  %3 = alloca i32, align 4
  %4 = alloca i32, align 4
  store i32 %0, ptr %3, align 4, !tbaa !27
  store i32 %1, ptr %4, align 4, !tbaa !40
  %5 = load i32, ptr %3, align 4, !tbaa !27
  %6 = load i32, ptr %4, align 4, !tbaa !40
  %7 = and i32 %5, %6
  ret i32 %7
}

; Function Attrs: mustprogress nounwind sspstrong uwtable
define linkonce_odr noundef i64 @_ZNSt13__atomic_baseIlEaNEl(ptr noundef nonnull align 8 dereferenceable(8) %0, i64 noundef %1) #1 comdat align 2 {
  %3 = alloca ptr, align 8
  %4 = alloca i64, align 8
  %5 = alloca i64, align 8
  %6 = alloca i64, align 8
  store ptr %0, ptr %3, align 8, !tbaa !25
  store i64 %1, ptr %4, align 8, !tbaa !29
  %7 = load ptr, ptr %3, align 8
  %8 = getelementptr inbounds nuw %"struct.std::__atomic_base", ptr %7, i32 0, i32 0
  %9 = load i64, ptr %4, align 8, !tbaa !29
  store i64 %9, ptr %5, align 8, !tbaa !29
  %10 = load i64, ptr %5, align 8
  %11 = atomicrmw and ptr %8, i64 %10 seq_cst, align 8
  %12 = and i64 %11, %10
  store i64 %12, ptr %6, align 8
  %13 = load i64, ptr %6, align 8, !tbaa !29
  ret i64 %13
}

; Function Attrs: alwaysinline mustprogress nounwind sspstrong uwtable
define linkonce_odr void @_ZNSt13__atomic_baseIbE5storeEbSt12memory_order(ptr noundef nonnull align 1 dereferenceable(1) %0, i1 noundef zeroext %1, i32 noundef %2) #3 comdat align 2 {
  %4 = alloca ptr, align 8
  %5 = alloca i8, align 1
  %6 = alloca i32, align 4
  %7 = alloca i32, align 4
  %8 = alloca i8, align 1
  store ptr %0, ptr %4, align 8, !tbaa !53
  %9 = zext i1 %1 to i8
  store i8 %9, ptr %5, align 1, !tbaa !10
  store i32 %2, ptr %6, align 4, !tbaa !27
  %10 = load ptr, ptr %4, align 8
  call void @llvm.lifetime.start.p0(i64 4, ptr %7) #7
  %11 = load i32, ptr %6, align 4, !tbaa !27
  %12 = call noundef i32 @_ZStanSt12memory_orderSt23__memory_order_modifier(i32 noundef %11, i32 noundef 65535)
  store i32 %12, ptr %7, align 4, !tbaa !27
  br label %13

13:                                               ; preds = %3
  br label %14

14:                                               ; preds = %13
  br label %15

15:                                               ; preds = %14
  br label %16

16:                                               ; preds = %15
  br label %17

17:                                               ; preds = %16
  br label %18

18:                                               ; preds = %17
  br label %19

19:                                               ; preds = %18
  br label %20

20:                                               ; preds = %19
  br label %21

21:                                               ; preds = %20
  %22 = getelementptr inbounds nuw %"struct.std::__atomic_base.1", ptr %10, i32 0, i32 0
  %23 = load i32, ptr %6, align 4, !tbaa !27
  %24 = load i8, ptr %5, align 1, !tbaa !10, !range !12, !noundef !13
  %25 = trunc i8 %24 to i1
  %26 = zext i1 %25 to i8
  store i8 %26, ptr %8, align 1, !tbaa !10
  switch i32 %23, label %27 [
    i32 3, label %29
    i32 5, label %31
  ]

27:                                               ; preds = %21
  %28 = load i8, ptr %8, align 1
  store atomic i8 %28, ptr %22 monotonic, align 1
  br label %33

29:                                               ; preds = %21
  %30 = load i8, ptr %8, align 1
  store atomic i8 %30, ptr %22 release, align 1
  br label %33

31:                                               ; preds = %21
  %32 = load i8, ptr %8, align 1
  store atomic i8 %32, ptr %22 seq_cst, align 1
  br label %33

33:                                               ; preds = %31, %29, %27
  call void @llvm.lifetime.end.p0(i64 4, ptr %7) #7
  ret void
}

; Function Attrs: mustprogress nounwind sspstrong uwtable
define linkonce_odr noundef i64 @_ZNSt13__atomic_baseIlEmIEl(ptr noundef nonnull align 8 dereferenceable(8) %0, i64 noundef %1) #1 comdat align 2 {
  %3 = alloca ptr, align 8
  %4 = alloca i64, align 8
  %5 = alloca i64, align 8
  %6 = alloca i64, align 8
  store ptr %0, ptr %3, align 8, !tbaa !25
  store i64 %1, ptr %4, align 8, !tbaa !29
  %7 = load ptr, ptr %3, align 8
  %8 = getelementptr inbounds nuw %"struct.std::__atomic_base", ptr %7, i32 0, i32 0
  %9 = load i64, ptr %4, align 8, !tbaa !29
  store i64 %9, ptr %5, align 8, !tbaa !29
  %10 = load i64, ptr %5, align 8
  %11 = atomicrmw sub ptr %8, i64 %10 seq_cst, align 8
  %12 = sub i64 %11, %10
  store i64 %12, ptr %6, align 8
  %13 = load i64, ptr %6, align 8, !tbaa !29
  ret i64 %13
}

; Function Attrs: inlinehint mustprogress nounwind sspstrong uwtable
define linkonce_odr void @_ZN3tbb6detail2d115call_itt_notifyENS1_11notify_typeEPv(i32 noundef %0, ptr noundef %1) #5 comdat {
  %3 = alloca i32, align 4
  %4 = alloca ptr, align 8
  store i32 %0, ptr %3, align 4, !tbaa !51
  store ptr %1, ptr %4, align 8, !tbaa !47
  ret void
}

; Function Attrs: alwaysinline mustprogress nounwind sspstrong uwtable
define internal void @_ZL5_xendv() #3 {
  call void @llvm.x86.xend()
  ret void
}

; Function Attrs: mustprogress nounwind sspstrong uwtable
define linkonce_odr void @_ZN3tbb6detail2d113spin_rw_mutex6unlockEv(ptr noundef nonnull align 8 dereferenceable(8) %0) #1 comdat align 2 {
  %2 = alloca ptr, align 8
  store ptr %0, ptr %2, align 8, !tbaa !35
  %3 = load ptr, ptr %2, align 8
  call void @_ZN3tbb6detail2d115call_itt_notifyENS1_11notify_typeEPv(i32 noundef 3, ptr noundef %3)
  %4 = getelementptr inbounds nuw %"class.tbb::detail::d1::spin_rw_mutex", ptr %3, i32 0, i32 0
  %5 = call noundef i64 @_ZNSt13__atomic_baseIlEaNEl(ptr noundef nonnull align 8 dereferenceable(8) %4, i64 noundef -4) #7
  ret void
}

; Function Attrs: mustprogress nounwind sspstrong uwtable
define linkonce_odr void @_ZNSt6atomicIbE5storeEbSt12memory_order(ptr noundef nonnull align 1 dereferenceable(1) %0, i1 noundef zeroext %1, i32 noundef %2) #1 comdat align 2 {
  %4 = alloca ptr, align 8
  %5 = alloca i8, align 1
  %6 = alloca i32, align 4
  store ptr %0, ptr %4, align 8, !tbaa !38
  %7 = zext i1 %1 to i8
  store i8 %7, ptr %5, align 1, !tbaa !10
  store i32 %2, ptr %6, align 4, !tbaa !27
  %8 = load ptr, ptr %4, align 8
  %9 = getelementptr inbounds nuw %"struct.std::atomic.0", ptr %8, i32 0, i32 0
  %10 = load i8, ptr %5, align 1, !tbaa !10, !range !12, !noundef !13
  %11 = trunc i8 %10 to i1
  %12 = load i32, ptr %6, align 4, !tbaa !27
  call void @_ZNSt13__atomic_baseIbE5storeEbSt12memory_order(ptr noundef nonnull align 1 dereferenceable(1) %9, i1 noundef zeroext %11, i32 noundef %12) #7
  ret void
}

; Function Attrs: mustprogress nounwind sspstrong uwtable
define linkonce_odr void @_ZN3tbb6detail2d113spin_rw_mutex13unlock_sharedEv(ptr noundef nonnull align 8 dereferenceable(8) %0) #1 comdat align 2 {
  %2 = alloca ptr, align 8
  store ptr %0, ptr %2, align 8, !tbaa !35
  %3 = load ptr, ptr %2, align 8
  call void @_ZN3tbb6detail2d115call_itt_notifyENS1_11notify_typeEPv(i32 noundef 3, ptr noundef %3)
  %4 = getelementptr inbounds nuw %"class.tbb::detail::d1::spin_rw_mutex", ptr %3, i32 0, i32 0
  %5 = call noundef i64 @_ZNSt13__atomic_baseIlEmIEl(ptr noundef nonnull align 8 dereferenceable(8) %4, i64 noundef 4) #7
  ret void
}

; Function Attrs: inlinehint mustprogress sspstrong uwtable
define internal void @_ZN3tbb6detail2r1L15end_transactionEv() #4 {
  call void @_ZL5_xendv()
  ret void
}

; Function Attrs: mustprogress sspstrong uwtable
define linkonce_odr void @_ZN3tbb6detail2r117rtm_rw_mutex_impl7releaseERNS0_2d112rtm_rw_mutex11scoped_lockE(ptr noundef nonnull align 8 dereferenceable(12) %0) #0 comdat align 2 {
  %2 = alloca ptr, align 8
  store ptr %0, ptr %2, align 8, !tbaa !8
  %3 = load ptr, ptr %2, align 8, !tbaa !8
  %4 = getelementptr inbounds nuw %"class.tbb::detail::d1::rtm_rw_mutex::scoped_lock", ptr %3, i32 0, i32 1
  %5 = load i32, ptr %4, align 8, !tbaa !16
  switch i32 %5, label %26 [
    i32 2, label %6
    i32 1, label %6
    i32 3, label %9
    i32 4, label %15
    i32 0, label %25
  ]

6:                                                ; preds = %1, %1
  call void @_ZN3tbb6detail2r1L15end_transactionEv()
  %7 = load ptr, ptr %2, align 8, !tbaa !8
  %8 = getelementptr inbounds nuw %"class.tbb::detail::d1::rtm_rw_mutex::scoped_lock", ptr %7, i32 0, i32 0
  store ptr null, ptr %8, align 8, !tbaa !19
  br label %27

9:                                                ; preds = %1
  %10 = load ptr, ptr %2, align 8, !tbaa !8
  %11 = getelementptr inbounds nuw %"class.tbb::detail::d1::rtm_rw_mutex::scoped_lock", ptr %10, i32 0, i32 0
  %12 = load ptr, ptr %11, align 8, !tbaa !19
  call void @_ZN3tbb6detail2d113spin_rw_mutex13unlock_sharedEv(ptr noundef nonnull align 8 dereferenceable(8) %12)
  %13 = load ptr, ptr %2, align 8, !tbaa !8
  %14 = getelementptr inbounds nuw %"class.tbb::detail::d1::rtm_rw_mutex::scoped_lock", ptr %13, i32 0, i32 0
  store ptr null, ptr %14, align 8, !tbaa !19
  br label %27

15:                                               ; preds = %1
  %16 = load ptr, ptr %2, align 8, !tbaa !8
  %17 = getelementptr inbounds nuw %"class.tbb::detail::d1::rtm_rw_mutex::scoped_lock", ptr %16, i32 0, i32 0
  %18 = load ptr, ptr %17, align 8, !tbaa !19
  %19 = getelementptr inbounds nuw %"class.tbb::detail::d1::rtm_rw_mutex", ptr %18, i32 0, i32 2
  call void @_ZNSt6atomicIbE5storeEbSt12memory_order(ptr noundef nonnull align 1 dereferenceable(1) %19, i1 noundef zeroext false, i32 noundef 0) #7
  %20 = load ptr, ptr %2, align 8, !tbaa !8
  %21 = getelementptr inbounds nuw %"class.tbb::detail::d1::rtm_rw_mutex::scoped_lock", ptr %20, i32 0, i32 0
  %22 = load ptr, ptr %21, align 8, !tbaa !19
  call void @_ZN3tbb6detail2d113spin_rw_mutex6unlockEv(ptr noundef nonnull align 8 dereferenceable(8) %22)
  %23 = load ptr, ptr %2, align 8, !tbaa !8
  %24 = getelementptr inbounds nuw %"class.tbb::detail::d1::rtm_rw_mutex::scoped_lock", ptr %23, i32 0, i32 0
  store ptr null, ptr %24, align 8, !tbaa !19
  br label %27

25:                                               ; preds = %1
  br label %27

26:                                               ; preds = %1
  br label %27

27:                                               ; preds = %26, %25, %15, %9, %6
  %28 = load ptr, ptr %2, align 8, !tbaa !8
  %29 = getelementptr inbounds nuw %"class.tbb::detail::d1::rtm_rw_mutex::scoped_lock", ptr %28, i32 0, i32 1
  store i32 0, ptr %29, align 8, !tbaa !16
  ret void
}

; Function Attrs: mustprogress sspstrong uwtable
define void @_ZN3tbb6detail2r17releaseERNS0_2d112rtm_rw_mutex11scoped_lockE(ptr noundef nonnull align 8 dereferenceable(12) %0) #0 {
  %2 = alloca ptr, align 8
  store ptr %0, ptr %2, align 8, !tbaa !8
  %3 = load ptr, ptr %2, align 8, !tbaa !8
  call void @_ZN3tbb6detail2r117rtm_rw_mutex_impl7releaseERNS0_2d112rtm_rw_mutex11scoped_lockE(ptr noundef nonnull align 8 dereferenceable(12) %3)
  ret void
}