; Function Attrs: mustprogress nounwind sspstrong uwtable
define void @_ZN3tbb6detail2r17releaseERNS0_2d112rtm_rw_mutex11scoped_lockE(ptr noundef nonnull align 8 captures(none) dereferenceable(12) %0) local_unnamed_addr #2 {
  %2 = getelementptr inbounds nuw i8, ptr %0, i64 8
  %3 = load i32, ptr %2, align 8, !tbaa !14
  switch i32 %3, label %_ZN3tbb6detail2r117rtm_rw_mutex_impl7releaseERNS0_2d112rtm_rw_mutex11scoped_lockE.exit [
    i32 2, label %4
    i32 1, label %4
    i32 3, label %5
    i32 4, label %8
  ]

4:                                                ; preds = %1, %1
  tail call void @llvm.x86.xend()
  br label %.sink.split.i

5:                                                ; preds = %1
  %6 = load ptr, ptr %0, align 8, !tbaa !19
  %7 = atomicrmw sub ptr %6, i64 4 seq_cst, align 8
  br label %.sink.split.i

8:                                                ; preds = %1
  %9 = load ptr, ptr %0, align 8, !tbaa !19
  %10 = getelementptr inbounds nuw i8, ptr %9, i64 64
  store atomic i8 0, ptr %10 monotonic, align 1
  %11 = load ptr, ptr %0, align 8, !tbaa !19
  %12 = atomicrmw and ptr %11, i64 -4 seq_cst, align 8
  br label %.sink.split.i

.sink.split.i:                                    ; preds = %8, %5, %4
  store ptr null, ptr %0, align 8, !tbaa !19
  br label %_ZN3tbb6detail2r117rtm_rw_mutex_impl7releaseERNS0_2d112rtm_rw_mutex11scoped_lockE.exit

_ZN3tbb6detail2r117rtm_rw_mutex_impl7releaseERNS0_2d112rtm_rw_mutex11scoped_lockE.exit: ; preds = %1, %.sink.split.i
  store i32 0, ptr %2, align 8, !tbaa !14
  ret void
}